; Function Attrs: nofree nounwind memory(argmem: read) uwtable
define internal range(i32 0, 2) i32 @equal_email(ptr noundef readonly captures(none) %0, i64 noundef %1, ptr noundef readonly captures(none) %2, i64 noundef %3, i32 %4) #6 {
  %.not = icmp eq i64 %1, %3
  br i1 %.not, label %.preheader, label %equal_nocase.exit.thread

.preheader:                                       ; preds = %5, %11
  %.0 = phi i64 [ %7, %11 ], [ %1, %5 ]
  %.not25 = icmp eq i64 %.0, 0
  br i1 %.not25, label %equal_nocase.exit.thread29, label %6

6:                                                ; preds = %.preheader
  %7 = add i64 %.0, -1
  %8 = getelementptr inbounds nuw i8, ptr %0, i64 %7
  %9 = load i8, ptr %8, align 1, !tbaa !13
  %10 = icmp eq i8 %9, 64
  br i1 %10, label %15, label %11

11:                                               ; preds = %6
  %12 = getelementptr inbounds nuw i8, ptr %2, i64 %7
  %13 = load i8, ptr %12, align 1, !tbaa !13
  %14 = icmp eq i8 %13, 64
  br i1 %14, label %15, label %.preheader, !llvm.loop !59

15:                                               ; preds = %11, %6
  %16 = sub i64 %1, %7
  %.not2954.i = icmp eq i64 %16, 0
  br i1 %.not2954.i, label %equal_nocase.exit, label %.lr.ph.i.preheader

.lr.ph.i.preheader:                               ; preds = %15
  %17 = getelementptr inbounds nuw i8, ptr %0, i64 %7
  %18 = getelementptr inbounds nuw i8, ptr %2, i64 %7
  br label %.lr.ph.i

.lr.ph.i:                                         ; preds = %.lr.ph.i.preheader, %28
  %.02557.i = phi ptr [ %30, %28 ], [ %18, %.lr.ph.i.preheader ]
  %.03756.i = phi i64 [ %31, %28 ], [ %16, %.lr.ph.i.preheader ]
  %.03855.i = phi ptr [ %29, %28 ], [ %17, %.lr.ph.i.preheader ]
  %19 = load i8, ptr %.03855.i, align 1, !tbaa !13
  %20 = load i8, ptr %.02557.i, align 1, !tbaa !13
  %21 = icmp eq i8 %19, 0
  br i1 %21, label %equal_nocase.exit.thread, label %22

22:                                               ; preds = %.lr.ph.i
  %.not30.i = icmp eq i8 %19, %20
  br i1 %.not30.i, label %28, label %23

23:                                               ; preds = %22
  %24 = add i8 %19, -65
  %or.cond.i = icmp ult i8 %24, 26
  %25 = or disjoint i8 %19, 32
  %spec.select.i = select i1 %or.cond.i, i8 %25, i8 %19
  %26 = add i8 %20, -65
  %or.cond5.i = icmp ult i8 %26, 26
  %27 = or disjoint i8 %20, 32
  %.022.i = select i1 %or.cond5.i, i8 %27, i8 %20
  %.not31.i = icmp eq i8 %spec.select.i, %.022.i
  br i1 %.not31.i, label %28, label %equal_nocase.exit.thread

28:                                               ; preds = %23, %22
  %29 = getelementptr inbounds nuw i8, ptr %.03855.i, i64 1
  %30 = getelementptr inbounds nuw i8, ptr %.02557.i, i64 1
  %31 = add i64 %.03756.i, -1
  %.not29.i = icmp eq i64 %31, 0
  br i1 %.not29.i, label %equal_nocase.exit, label %.lr.ph.i

equal_nocase.exit:                                ; preds = %28, %15
  %32 = icmp eq i64 %7, 0
  br i1 %32, label %equal_nocase.exit.thread29, label %33

equal_nocase.exit.thread29:                       ; preds = %.preheader, %equal_nocase.exit
  br label %33

33:                                               ; preds = %equal_nocase.exit, %equal_nocase.exit.thread29
  %34 = phi i64 [ %1, %equal_nocase.exit.thread29 ], [ %7, %equal_nocase.exit ]
  %bcmp.i = tail call i32 @bcmp(ptr %0, ptr readonly %2, i64 %34)
  %.not5.i = icmp eq i32 %bcmp.i, 0
  %35 = zext i1 %.not5.i to i32
  br label %equal_nocase.exit.thread

equal_nocase.exit.thread:                         ; preds = %23, %.lr.ph.i, %5, %33
  %.023 = phi i32 [ %35, %33 ], [ 0, %5 ], [ 0, %.lr.ph.i ], [ 0, %23 ]
  ret i32 %.023
}